(dp1
S'L540273514'
p2
I157400
sS'L1750273514'
p3
I510190
sS'L1740273514'
p4
I507274
sS'L230273514'
p5
I67035
sS'L620273514'
p6
I180720
sS'L100273514'
p7
I29140
sS'L270273514'
p8
I78695
sS'L650273514'
p9
I189465
sS'L30273514'
p10
I8742
sS'L380273514'
p11
I110760
sS'L840273514'
p12
I244850
sS'L460273514'
p13
I134080
sS'L560273514'
p14
I163230
sS'L710273514'
p15
I206955
sS'L2100273514'
p16
I612250
sS'L1950273514'
p17
I568510
sS'L60273514'
p18
I17484
sS'L1400273514'
p19
I408130
sS'L930273514'
p20
I271085
sS'L1440273514'
p21
I419794
sS'L940273514'
p22
I274000
sS'L1390273514'
p23
I405214
sS'L1900273514'
p24
I553930
sS'L400273514'
p25
I116590
sS'L140273514'
p26
I40800
sS'L1790273514'
p27
I521854
sS'L810273514'
p28
I236105
sS'L1700273514'
p29
I495610
sS'L990273514'
p30
I288575
sS'L160273514'
p31
I46630
sS'L370273514'
p32
I107845
sS'L1060273514'
p33
I308986
sS'L1010273514'
p34
I294406
sS'L1040273514'
p35
I303154
sS'L1330273514'
p36
I387718
sS'L1550273514'
p37
I451870
sS'L1850273514'
p38
I539350
sS'L670273514'
p39
I195295
sS'L1450273514'
p40
I422710
sS'L150273514'
p41
I43715
sS'L1970273514'
p42
I574342
sS'L70273514'
p43
I20398
sS'L1360273514'
p44
I396466
sS'L220273514'
p45
I64120
sS'L1210273514'
p46
I352726
sS'L1290273514'
p47
I376054
sS'L1000273514'
p48
I291490
sS'L1690273514'
p49
I492694
sS'L790273514'
p50
I230275
sS'L820273514'
p51
I239020
sS'L1800273514'
p52
I524770
sS'L1980273514'
p53
I577258
sS'L2110273514'
p54
I615166
sS'L490273514'
p55
I142825
sS'L390273514'
p56
I113675
sS'L1270273514'
p57
I370222
sS'L330273514'
p58
I96185
sS'L440273514'
p59
I128250
sS'L760273514'
p60
I221530
sS'L430273514'
p61
I125335
sS'L510273514'
p62
I148655
sS'L2060273514'
p63
I600586
sS'L1020273514'
p64
I297322
sS'L1370273514'
p65
I399382
sS'L1620273514'
p66
I472282
sS'L830273514'
p67
I241935
sS'L50273514'
p68
I14570
sS'L290273514'
p69
I84525
sS'L10273514'
p70
I2914
sS'L1190273514'
p71
I346894
sS'L1490273514'
p72
I434374
sS'L1670273514'
p73
I486862
sS'L860273514'
p74
I250680
sS'L720273514'
p75
I209870
sS'L1930273514'
p76
I562678
sS'L1830273514'
p77
I533518
sS'L2030273514'
p78
I591838
sS'L1610273514'
p79
I469366
sS'L700273514'
p80
I204040
sS'L610273514'
p81
I177805
sS'L1660273514'
p82
I483946
sS'L2080273514'
p83
I606418
sS'L340273514'
p84
I99100
sS'L280273514'
p85
I81610
sS'L300273514'
p86
I87440
sS'L1250273514'
p87
I364390
sS'L970273514'
p88
I282745
sS'L550273514'
p89
I160315
sS'L410273514'
p90
I119505
sS'L730273514'
p91
I212785
sS'L630273514'
p92
I183635
sS'L1820273514'
p93
I530602
sS'L120273514'
p94
I34970
sS'L1350273514'
p95
I393550
sS'L1470273514'
p96
I428542
sS'L980273514'
p97
I285660
sS'L1310273514'
p98
I381886
sS'L1910273514'
p99
I556846
sS'L1120273514'
p100
I326482
sS'L880273514'
p101
I256510
sS'L250273514'
p102
I72865
sS'L1870273514'
p103
I545182
sS'L530273514'
p104
I154485
sS'L2090273514'
p105
I609334
sS'L1580273514'
p106
I460618
sS'L1730273514'
p107
I504358
sS'L920273514'
p108
I268170
sS'L1630273514'
p109
I475198
sS'L180273514'
p110
I52460
sS'L890273514'
p111
I259425
sS'L1410273514'
p112
I411046
sS'L1530273514'
p113
I446038
sS'L1200273514'
p114
I349810
sS'L2120273514'
p115
I618082
sS'L1780273514'
p116
I518938
sS'L780273514'
p117
I227360
sS'L1280273514'
p118
I373138
sS'L1300273514'
p119
I378970
sS'L680273514'
p120
I198210
sS'L1590273514'
p121
I463534
sS'L1380273514'
p122
I402298
sS'L00273514'
p123
I0
sS'L350273514'
p124
I102015
sS'L1770273514'
p125
I516022
sS'L1420273514'
p126
I413962
sS'L1080273514'
p127
I314818
sS'L1100273514'
p128
I320650
sS'L1680273514'
p129
I489778
sS'L1140273514'
p130
I332314
sS'L1890273514'
p131
I551014
sS'L2040273514'
p132
I594754
sS'L580273514'
p133
I169060
sS'L910273514'
p134
I265255
sS'L850273514'
p135
I247765
sS'L260273514'
p136
I75780
sS'L210273514'
p137
I61205
sS'L1650273514'
p138
I481030
sS'L470273514'
p139
I136995
sS'L1880273514'
p140
I548098
sS'L570273514'
p141
I166145
sS'L500273514'
p142
I145740
sS'L1480273514'
p143
I431458
sS'L130273514'
p144
I37885
sS'L640273514'
p145
I186550
sS'L80273514'
p146
I23312
sS'L1990273514'
p147
I580174
sS'L1090273514'
p148
I317734
sS'L590273514'
p149
I171975
sS'L450273514'
p150
I131165
sS'L1240273514'
p151
I361474
sS'L110273514'
p152
I32055
sS'L900273514'
p153
I262340
sS'L740273514'
p154
I215700
sS'L20273514'
p155
I5828
sS'L800273514'
p156
I233190
sS'L870273514'
p157
I253595
sS'L1520273514'
p158
I443122
sS'L950273514'
p159
I276915
sS'L1840273514'
p160
I536434
sS'L1960273514'
p161
I571426
sS'L1540273514'
p162
I448954
sS'L1760273514'
p163
I513106
sS'L200273514'
p164
I58290
sS'L1110273514'
p165
I323566
sS'L40273514'
p166
I11656
sS'L1710273514'
p167
I498526
sS'L1130273514'
p168
I329398
sS'L2000273514'
p169
I583090
sS'L1460273514'
p170
I425626
sS'L1600273514'
p171
I466450
sS'L1920273514'
p172
I559762
sS'L600273514'
p173
I174890
sS'L520273514'
p174
I151570
sS'L170273514'
p175
I49545
sS'L1430273514'
p176
I416878
sS'L1260273514'
p177
I367306
sS'L1320273514'
p178
I384802
sS'L1810273514'
p179
I527686
sS'L1220273514'
p180
I355642
sS'L1860273514'
p181
I542266
sS'L1050273514'
p182
I306070
sS'L2010273514'
p183
I586006
sS'L320273514'
p184
I93270
sS'L1170273514'
p185
I341062
sS'L660273514'
p186
I192380
sS'L2070273514'
p187
I603502
sS'L1570273514'
p188
I457702
sS'L1560273514'
p189
I454786
sS'L1340273514'
p190
I390634
sS'L240273514'
p191
I69950
sS'L1160273514'
p192
I338146
sS'L690273514'
p193
I201125
sS'L1940273514'
p194
I565594
sS'L750273514'
p195
I218615
sS'L420273514'
p196
I122420
sS'L190273514'
p197
I55375
sS'L1150273514'
p198
I335230
sS'L1230273514'
p199
I358558
sS'L480273514'
p200
I139910
sS'L770273514'
p201
I224445
sS'L1180273514'
p202
I343978
sS'L1640273514'
p203
I478114
sS'L2020273514'
p204
I588922
sS'L1070273514'
p205
I311902
sS'L2050273514'
p206
I597670
sS'L1030273514'
p207
I300238
sS'L90273514'
p208
I26226
sS'L1510273514'
p209
I440206
sS'L960273514'
p210
I279830
sS'L310273514'
p211
I90355
sS'L1720273514'
p212
I501442
sS'L360273514'
p213
I104930
sS'L1500273514'
p214
I437290
s.