(dp1
S'L1737979'
p2
I297440
sS'L1761824'
p3
I605696
sS'L1781023'
p4
I786864
sS'L1772791'
p5
I108160
sS'L1800974'
p6
I1184352
sS'L1801427'
p7
I1168128
sS'L1796689'
p8
I981552
sS'L1794415'
p9
I1008592
sS'L1787506'
p10
I927472
sS'L1790873'
p11
I1014000
sS'L1754463'
p12
I573248
sS'L1802660'
p13
I1108640
sS'L1767494'
p14
I13520
sS'L1742686'
p15
I365040
sS'L1798565'
p16
I1062672
sS'L1775485'
p17
I40560
sS'L1783790'
p18
I873392
sS'L1753246'
p19
I467792
sS'L1749462'
p20
I521872
sS'L1759086'
p21
I443456
sS'L1741486'
p22
I338000
sS'L1606143'
p23
I630032
sS'L1789210'
p24
I940992
sS'L1604108'
p25
I651664
sS'L1740404'
p26
I354224
sS'L1810124'
p27
I700336
sS'L1734355'
p28
I262288
sS'L1806641'
p29
I713856
sS'L1802525'
p30
I1100528
sS'L1744646'
p31
I381264
sS'L1802529'
p32
I1103232
sS'L1803447'
p33
I1116752
sS'L1776205'
p34
I27040
sS'L1745872'
p35
I408304
sS'L1754070'
p36
I570544
sS'L1785828'
p37
I919360
sS'L1782863'
p38
I765232
sS'L1744442'
p39
I378560
sS'L1772672'
p40
I97344
sS'L1788302'
p41
I935584
sS'L1787114'
p42
I895024
sS'L1796087'
p43
I968032
sS'L1744103'
p44
I324480
sS'L1775605'
p45
I45968
sS'L1769746'
p46
I137904
sS'L1787303'
p47
I897728
sS'L1800998'
p48
I1181648
sS'L1793197'
p49
I1000480
sS'L1750175'
p50
I519168
sS'L1732516'
p51
I243360
sS'L1732457'
p52
I246064
sS'L1752414'
p53
I502944
sS'L1800866'
p54
I1178944
sS'L1758718'
p55
I462384
sS'L1763885'
p56
I186576
sS'L1765934'
p57
I175760
sS'L1766807'
p58
I159536
sS'L1751806'
p59
I489424
sS'L1798297'
p60
I1070784
sS'L1735502'
p61
I216320
sS'L1605007'
p62
I638144
sS'L1772037'
p63
I78416
sS'L1771869'
p64
I81120
sS'L1806288'
p65
I1149200
sS'L1758614'
p66
I435344
sS'L1784166'
p67
I876096
sS'L1808476'
p68
I727376
sS'L1785848'
p69
I916656
sS'L1811936'
p70
I746304
sS'L1761465'
p71
I597584
sS'L1766834'
p72
I156832
sS'L1750954'
p73
I494832
sS'L1750592'
p74
I492128
sS'L1734251'
p75
I224432
sS'L1734844'
p76
I283920
sS'L1810993'
p77
I751712
sS'L1760564'
p78
I440752
sS'L1809298'
p79
I730080
sS'L1749599'
p80
I559728
sS'L1797061'
p81
I986960
sS'L1732704'
p82
I240656
sS'L1809194'
p83
I735488
sS'L1789245'
p84
I949104
sS'L1747365'
p85
I543504
sS'L1731680'
p86
I273104
sS'L1754189'
p87
I578656
sS'L1763468'
p88
I197392
sS'L1753954'
p89
I473200
sS'L1806677'
p90
I721968
sS'L1807098'
p91
I716560
sS'L1811724'
p92
I757120
sS'L1749086'
p93
I524576
sS'L1761049'
p94
I424528
sS'L1734669'
p95
I286624
sS'L1604484'
p96
I659776
sS'L1780757'
p97
I805792
sS'L1792266'
p98
I1041040
sS'L1733226'
p99
I232544
sS'L1734543'
p100
I289328
sS'L1791844'
p101
I1032928
sS'L1779925'
p102
I824720
sS'L1799184'
p103
I1084304
sS'L1773247'
p104
I118976
sS'L1603103'
p105
I670592
sS'L1799188'
p106
I1087008
sS'L1758027'
p107
I432640
sS'L1769490'
p108
I135200
sS'L1757162'
p109
I594880
sS'L1803441'
p110
I1114048
sS'L1767414'
p111
I162240
sS'L1745920'
p112
I405600
sS'L1801372'
p113
I1165424
sS'L1753075'
p114
I478608
sS'L1754096'
p115
I567840
sS'L1760033'
p116
I448864
sS'L1603878'
p117
I643552
sS'L1765907'
p118
I173056
sS'L1738614'
p119
I313664
sS'L1755820'
p120
I562432
sS'L1754293'
p121
I575952
sS'L1604557'
p122
I657072
sS'L1735820'
p123
I210912
sS'L1757081'
p124
I592176
sS'L1792929'
p125
I1059968
sS'L1775493'
p126
I37856
sS'L1811925'
p127
I743600
sS'L1776449'
p128
I32448
sS'L1604111'
p129
I654368
sS'L1802910'
p130
I1095120
sS'L1780477'
p131
I811200
sS'L1778775'
p132
I835536
sS'L1768092'
p133
I5408
sS'L1603529'
p134
I678704
sS'L1732017'
p135
I267696
sS'L1740411'
p136
I351520
sS'L1741942'
p137
I332592
sS'L1729943'
p138
I221728
sS'L1748422'
p139
I532688
sS'L1783302'
p140
I862576
sS'L1752697'
p141
I484016
sS'L1761089'
p142
I427232
sS'L1604371'
p143
I662480
sS'L1779249'
p144
I794976
sS'L1805193'
p145
I1141088
sS'L1771966'
p146
I83824
sS'L1743045'
p147
I367744
sS'L1741425'
p148
I343408
sS'L1605832'
p149
I611104
sS'L1791730'
p150
I1030224
sS'L1750324'
p151
I511056
sS'L1752848'
p152
I486720
sS'L1783158'
p153
I857168
sS'L1777296'
p154
I832832
sS'L1810182'
p155
I697632
sS'L1763079'
p156
I208208
sS'L1748687'
p157
I527280
sS'L1796464'
p158
I973440
sS'L1802620'
p159
I1105936
sS'L1748042'
p160
I538096
sS'L1780159'
p161
I816608
sS'L1773914'
p162
I64896
sS'L1748047'
p163
I540800
sS'L1757686'
p164
I429936
sS'L1778220'
p165
I851760
sS'L1805900'
p166
I1154608
sS'L1733371'
p167
I237952
sS'L1773187'
p168
I113568
sS'L1791509'
p169
I1027520
sS'L1789563'
p170
I1019408
sS'L1798185'
p171
I1073488
sS'L1768932'
p172
I151424
sS'L1803500'
p173
I1111344
sS'L1801476'
p174
I1170832
sS'L1795139'
p175
I965328
sS'L1747505'
p176
I548912
sS'L1803814'
p177
I1119456
sS'L1745601'
p178
I400192
sS'L1742792'
p179
I362336
sS'L1810481'
p180
I740896
sS'L1774952'
p181
I56784
sS'L1786091'
p182
I911248
sS'L1805482'
p183
I1146496
sS'L1791789'
p184
I1035632
sS'L1797517'
p185
I1065376
sS'L1761924'
p186
I602992
sS'L1772386'
p187
I105456
sS'L1760776'
p188
I465088
sS'L1733625'
p189
I229840
sS'L1795200'
p190
I962624
sS'L1775475'
p191
I43264
sS'L1746045'
p192
I416416
sS'L1782024'
p193
I767936
sS'L1743347'
p194
I373152
sS'L1806208'
p195
I1151904
sS'L1797196'
p196
I922064
sS'L1755125'
p197
I586768
sS'L1755124'
p198
I589472
sS'L1736331'
p199
I421824
sS'L1764474'
p200
I178464
sS'L1811468'
p201
I749008
sS'L1786389'
p202
I905840
sS'L1805100'
p203
I1138384
sS'L1740094'
p204
I302848
sS'L1792805'
p205
I1054560
sS'L1766494'
p206
I167648
sS'L1606233'
p207
I616512
sS'L1778079'
p208
I849056
sS'L1753948'
p209
I475904
sS'L1734435'
p210
I264992
sS'L1741266'
p211
I346112
sS'L1774688'
p212
I59488
sS'L1811003'
p213
I754416
sS'L1763559'
p214
I189280
sS'L1759630'
p215
I454272
sS'L1746920'
p216
I557024
sS'L1770202'
p217
I127088
sS'L1762231'
p218
I183872
sS'L1763634'
p219
I191984
sS'L1780668'
p220
I803088
sS'L1768473'
p221
I143312
sS'L1799744'
p222
I1089712
sS'L1781342'
p223
I830128
sS'L1606306'
p224
I619216
sS'L1731196'
p225
I275808
sS'L1767924'
p226
I10816
sS'L1773259'
p227
I116272
sS'L1787850'
p228
I930176
sS'L1744047'
p229
I327184
sS'L1795777'
p230
I970736
sS'L1758831'
p231
I456976
sS'L1797009'
p232
I992368
sS'L1763022'
p233
I202800
sS'L1780061'
p234
I819312
sS'L1753164'
p235
I481312
sS'L1799089'
p236
I1076192
sS'L1752068'
p237
I508352
sS'L1796310'
p238
I978848
sS'L1795518'
p239
I954512
sS'L1792738'
p240
I1046448
sS'L1807723'
p241
I703040
sS'L1740653'
p242
I348816
sS'L1782140'
p243
I773344
sS'L1765858'
p244
I18928
sS'L1735522'
p245
I219024
sS'L1735525'
p246
I213616
sS'L1772376'
p247
I102752
sS'L1801218'
p248
I1173536
sS'L1778406'
p249
I843648
sS'L1782098'
p250
I776048
sS'L1789713'
p251
I1016704
sS'L1784203'
p252
I878800
sS'L1738694'
p253
I308256
sS'L1775596'
p254
I48672
sS'L1733069'
p255
I254176
sS'L1772501'
p256
I91936
sS'L1772502'
p257
I94640
sS'L1773582'
p258
I121680
sS'L1771336'
p259
I75712
sS'L1795350'
p260
I957216
sS'L1780369'
p261
I813904
sS'L1777181'
p262
I762528
sS'L1761568'
p263
I600288
sS'L1779049'
p264
I792272
sS'L1732362'
p265
I248768
sS'L1731366'
p266
I278512
sS'L1778543'
p267
I846352
sS'L1741189'
p268
I340704
sS'L1770493'
p269
I70304
sS'L1737265'
p270
I294736
sS'L1754971'
p271
I584064
sS'L1772473'
p272
I86528
sS'L1773221'
p273
I110864
sS'L1745209'
p274
I383968
sS'L1763161'
p275
I200096
sS'L1772599'
p276
I100048
sS'L1796920'
p277
I989664
sS'L1792114'
p278
I1043744
sS'L1779620'
p279
I797680
sS'L1778891'
p280
I838240
sS'L1606261'
p281
I621920
sS'L1781265'
p282
I827424
sS'L1604985'
p283
I640848
sS'L1780493'
p284
I808496
sS'L1606269'
p285
I624624
sS'L1766665'
p286
I170352
sS'L1783008'
p287
I865280
sS'L1745118'
p288
I392080
sS'L1751191'
p289
I500240
sS'L1755751'
p290
I565136
sS'L1797030'
p291
I995072
sS'L1768608'
p292
I146016
sS'L1603609'
p293
I667888
sS'L1774619'
p294
I54080
sS'L1743310'
p295
I370448
sS'L1748757'
p296
I529984
sS'L1783215'
p297
I854464
sS'L1770232'
p298
I129792
sS'L1774592'
p299
I51376
sS'L1602078'
p300
I689520
sS'L1792200'
p301
I1038336
sS'L1734564'
p302
I292032
sS'L1754123'
p303
I581360
sS'L1785164'
p304
I884208
sS'L1604308'
p305
I665184
sS'L1605854'
p306
I613808
sS'L1751637'
p307
I497536
sS'L1791389'
p308
I1024816
sS'L1762986'
p309
I205504
sS'L1764869'
p310
I0
sS'L1780033'
p311
I822016
sS'L1606077'
p312
I627328
sS'L1775574'
p313
I35152
sS'L1743711'
p314
I356928
sS'L1808672'
p315
I738192
sS'L1799214'
p316
I1081600
sS'L1784149'
p317
I870688
sS'L1758633'
p318
I459680
sS'L1738633'
p319
I310960
sS'L1734335'
p320
I259584
sS'L1603182'
p321
I676000
sS'L1786369'
p322
I903136
sS'L1746042'
p323
I413712
sS'L1736301'
p324
I419120
sS'L1804741'
p325
I1132976
sS'L1792839'
p326
I1057264
sS'L1745086'
p327
I389376
sS'L1769921'
p328
I140608
sS'L1747828'
p329
I554320
sS'L1604137'
p330
I648960
sS'L1776466'
p331
I29744
sS'L1787997'
p332
I932880
sS'L1781100'
p333
I789568
sS'L1768138'
p334
I8112
sS'L1747343'
p335
I546208
sS'L1603132'
p336
I673296
sS'L1783044'
p337
I867984
sS'L1750429'
p338
I516464
sS'L1804190'
p339
I1130272
sS'L1773546'
p340
I124384
sS'L1788403'
p341
I938288
sS'L1745018'
p342
I386672
sS'L1741847'
p343
I335296
sS'L1733841'
p344
I227136
sS'L1748017'
p345
I535392
sS'L1780675'
p346
I800384
sS'L1800571'
p347
I1176240
sS'L1776215'
p348
I24336
sS'L1803184'
p349
I1097824
sS'L1810290'
p350
I694928
sS'L1792537'
p351
I1051856
sS'L1769331'
p352
I148720
sS'L1785005'
p353
I889616
sS'L1792566'
p354
I1049152
sS'L1733320'
p355
I235248
sS'L1778689'
p356
I840944
sS'L1802019'
p357
I1162720
sS'L1742215'
p358
I329888
sS'L1782490'
p359
I778752
sS'L1785184'
p360
I881504
sS'L1782253'
p361
I770640
sS'L1737840'
p362
I300144
sS'L1801051'
p363
I1160016
sS'L1799310'
p364
I1078896
sS'L1764986'
p365
I21632
sS'L1794907'
p366
I1005888
sS'L1601460'
p367
I681408
sS'L1758257'
p368
I438048
sS'L1794863'
p369
I1011296
sS'L1786746'
p370
I900432
sS'L1796711'
p371
I984256
sS'L1795113'
p372
I951808
sS'L1603918'
p373
I646256
sS'L1738367'
p374
I305552
sS'L1798060'
p375
I1068080
sS'L1792994'
p376
I1003184
sS'L1783131'
p377
I859872
sS'L1806506'
p378
I705744
sS'L1605072'
p379
I635440
sS'L1806502'
p380
I708448
sS'L1789084'
p381
I943696
sS'L1803879'
p382
I1127568
sS'L1805352'
p383
I1143792
sS'L1806130'
p384
I1157312
sS'L1789313'
p385
I946400
sS'L1733076'
p386
I256880
sS'L1808623'
p387
I724672
sS'L1743728'
p388
I359632
sS'L1772513'
p389
I89232
sS'L1739062'
p390
I316368
sS'L1785029'
p391
I892320
sS'L1766276'
p392
I154128
sS'L1602292'
p393
I686816
sS'L1784584'
p394
I886912
sS'L1744970'
p395
I394784
sS'L1752080'
p396
I505648
sS'L1769452'
p397
I132496
sS'L1806595'
p398
I711152
sS'L1761879'
p399
I608400
sS'L1746404'
p400
I375856
sS'L1739382'
p401
I319072
sS'L1811665'
p402
I759824
sS'L1793374'
p403
I997776
sS'L1605314'
p404
I632736
sS'L1763277'
p405
I194688
sS'L1760379'
p406
I451568
sS'L1777734'
p407
I784160
sS'L1796416'
p408
I976144
sS'L1766474'
p409
I164944
sS'L1735026'
p410
I281216
sS'L1795336'
p411
I959920
sS'L1750305'
p412
I513760
sS'L1745573'
p413
I397488
sS'L1806827'
p414
I719264
sS'L1764250'
p415
I181168
sS'L1770615'
p416
I73008
sS'L1767476'
p417
I16224
sS'L1782354'
p418
I781456
sS'L1768287'
p419
I2704
sS'L1800272'
p420
I1092416
sS'L1774195'
p421
I67600
sS'L1732426'
p422
I251472
sS'L1805140'
p423
I1135680
sS'L1753294'
p424
I470496
sS'L1803740'
p425
I1122160
sS'L1731607'
p426
I270400
sS'L1774513'
p427
I62192
sS'L1785705'
p428
I913952
sS'L1743923'
p429
I321776
sS'L1746289'
p430
I411008
sS'L1602879'
p431
I684112
sS'L1787471'
p432
I924768
sS'L1745954'
p433
I402896
sS'L1759532'
p434
I446160
sS'L1602112'
p435
I692224
sS'L1747447'
p436
I551616
sS'L1804918'
p437
I1124864
sS'L1785381'
p438
I908544
sS'L1791067'
p439
I1022112
sS'L1808847'
p440
I732784
s.